; Function Attrs: nounwind uwtable
define i32 @exr_get_file_name(ptr noundef %0, ptr noundef writeonly %1) local_unnamed_addr #0 {
  %.not = icmp eq ptr %0, null
  br i1 %.not, label %16, label %3

3:                                                ; preds = %2
  %.not10 = icmp eq ptr %1, null
  br i1 %.not10, label %12, label %4

4:                                                ; preds = %3
  %5 = getelementptr inbounds nuw i8, ptr %0, i64 16
  %6 = load ptr, ptr %5, align 8, !tbaa !49
  store ptr %6, ptr %1, align 8, !tbaa !74
  %7 = load i8, ptr %0, align 8, !tbaa !56
  %8 = icmp eq i8 %7, 1
  br i1 %8, label %9, label %16

9:                                                ; preds = %4
  %10 = getelementptr inbounds nuw i8, ptr %0, i64 504
  %11 = tail call i32 @pthread_mutex_unlock(ptr noundef nonnull %10) #13
  br label %16

12:                                               ; preds = %3
  %13 = getelementptr inbounds nuw i8, ptr %0, i64 56
  %14 = load ptr, ptr %13, align 8, !tbaa !55
  %15 = tail call i32 %14(ptr noundef nonnull %0, i32 noundef 3) #13
  br label %16

16:                                               ; preds = %4, %9, %2, %12
  %.0 = phi i32 [ %15, %12 ], [ 2, %2 ], [ 0, %9 ], [ 0, %4 ]
  ret i32 %.0
}